target datalayout = "e-m:e-p270:32:32-p271:32:32-p272:64:64-i64:64-i128:128-f80:128-n8:16:32:64-S128"
target triple = "x86_64-pc-linux-gnu"

@.str.88 = private unnamed_addr constant [24 x i8] c"Converting the string \22\00", align 1
@.str.89 = private unnamed_addr constant [47 x i8] c"\22 into an inverted value resulted in overflow.\00", align 1

; Function Attrs: inlinehint mustprogress uwtable
define linkonce_odr hidden noundef i32 @_ZN6Assimp8strtol10EPKcPS1_(ptr noundef %0, ptr noundef %1) #6 comdat {
  %3 = alloca ptr, align 8
  %4 = alloca ptr, align 8
  %5 = alloca i8, align 1
  %6 = alloca i32, align 4
  store ptr %0, ptr %3, align 8
  store ptr %1, ptr %4, align 8
  call void @llvm.lifetime.start.p0(i64 1, ptr %5) #17
  %7 = load ptr, ptr %3, align 8
  %8 = load i8, ptr %7, align 1
  %9 = sext i8 %8 to i32
  %10 = icmp eq i32 %9, 45
  %11 = zext i1 %10 to i8
  store i8 %11, ptr %5, align 1
  %12 = load i8, ptr %5, align 1, !range !3, !noundef !4
  %13 = trunc i8 %12 to i1
  br i1 %13, label %19, label %14

14:                                               ; preds = %2
  %15 = load ptr, ptr %3, align 8
  %16 = load i8, ptr %15, align 1
  %17 = sext i8 %16 to i32
  %18 = icmp eq i32 %17, 43
  br i1 %18, label %19, label %22

19:                                               ; preds = %14, %2
  %20 = load ptr, ptr %3, align 8
  %21 = getelementptr inbounds nuw i8, ptr %20, i32 1
  store ptr %21, ptr %3, align 8
  br label %22

22:                                               ; preds = %19, %14
  call void @llvm.lifetime.start.p0(i64 4, ptr %6) #17
  %23 = load ptr, ptr %3, align 8
  %24 = load ptr, ptr %4, align 8
  %25 = call noundef i32 @_ZN6Assimp9strtoul10EPKcPS1_(ptr noundef %23, ptr noundef %24)
  store i32 %25, ptr %6, align 4
  %26 = load i8, ptr %5, align 1, !range !3, !noundef !4
  %27 = trunc i8 %26 to i1
  br i1 %27, label %28, label %40

28:                                               ; preds = %22
  %29 = load i32, ptr %6, align 4
  %30 = icmp slt i32 %29, 2147483647
  br i1 %30, label %31, label %37

31:                                               ; preds = %28
  %32 = load i32, ptr %6, align 4
  %33 = icmp sgt i32 %32, -2147483648
  br i1 %33, label %34, label %37

34:                                               ; preds = %31
  %35 = load i32, ptr %6, align 4
  %36 = sub nsw i32 0, %35
  store i32 %36, ptr %6, align 4
  br label %39

37:                                               ; preds = %31, %28
  %38 = call noundef ptr @_ZN6Assimp13DefaultLogger3getEv()
  call void @_ZN6Assimp6Logger4warnIJRA24_KcRPS2_RA47_S2_EEEvDpOT_(ptr noundef nonnull align 8 dereferenceable(12) %38, ptr noundef nonnull align 1 dereferenceable(24) @.str.88, ptr noundef nonnull align 8 dereferenceable(8) %3, ptr noundef nonnull align 1 dereferenceable(47) @.str.89)
  br label %39

39:                                               ; preds = %37, %34
  br label %40

40:                                               ; preds = %39, %22
  %41 = load i32, ptr %6, align 4
  call void @llvm.lifetime.end.p0(i64 4, ptr %6) #17
  call void @llvm.lifetime.end.p0(i64 1, ptr %5) #17
  ret i32 %41
}

; Function Attrs: inlinehint mustprogress nounwind uwtable
define linkonce_odr hidden noundef i32 @_ZN6Assimp9strtoul10EPKcPS1_(ptr noundef %0, ptr noundef %1) #5 comdat {
  %3 = alloca ptr, align 8
  %4 = alloca ptr, align 8
  %5 = alloca i32, align 4
  store ptr %0, ptr %3, align 8
  store ptr %1, ptr %4, align 8
  call void @llvm.lifetime.start.p0(i64 4, ptr %5) #17
  store i32 0, ptr %5, align 4
  br label %6

6:                                                ; preds = %17, %2
  %7 = load ptr, ptr %3, align 8
  %8 = load i8, ptr %7, align 1
  %9 = sext i8 %8 to i32
  %10 = icmp slt i32 %9, 48
  br i1 %10, label %16, label %11

11:                                               ; preds = %6
  %12 = load ptr, ptr %3, align 8
  %13 = load i8, ptr %12, align 1
  %14 = sext i8 %13 to i32
  %15 = icmp sgt i32 %14, 57
  br i1 %15, label %16, label %17

16:                                               ; preds = %11, %6
  br label %27

17:                                               ; preds = %11
  %18 = load i32, ptr %5, align 4
  %19 = mul i32 %18, 10
  %20 = load ptr, ptr %3, align 8
  %21 = load i8, ptr %20, align 1
  %22 = sext i8 %21 to i32
  %23 = sub nsw i32 %22, 48
  %24 = add i32 %19, %23
  store i32 %24, ptr %5, align 4
  %25 = load ptr, ptr %3, align 8
  %26 = getelementptr inbounds nuw i8, ptr %25, i32 1
  store ptr %26, ptr %3, align 8
  br label %6, !llvm.loop !7

27:                                               ; preds = %16
  %28 = load ptr, ptr %4, align 8
  %29 = icmp ne ptr %28, null
  br i1 %29, label %30, label %33

30:                                               ; preds = %27
  %31 = load ptr, ptr %3, align 8
  %32 = load ptr, ptr %4, align 8
  store ptr %31, ptr %32, align 8
  br label %33

33:                                               ; preds = %30, %27
  %34 = load i32, ptr %5, align 4
  call void @llvm.lifetime.end.p0(i64 4, ptr %5) #17
  ret i32 %34
}

; Function Attrs: mustprogress uwtable
define hidden noundef zeroext i1 @_ZN6Assimp3PLY16PropertyInstance10ParseValueERPKcNS0_9EDataTypeEPNS1_10ValueUnionE(ptr noundef nonnull align 8 dereferenceable(8) %0, i32 noundef %1, ptr noundef %2) #0 align 2 {
  %4 = alloca ptr, align 8
  %5 = alloca i32, align 4
  %6 = alloca ptr, align 8
  %7 = alloca i8, align 1
  %8 = alloca float, align 4
  %9 = alloca double, align 8
  store ptr %0, ptr %4, align 8
  store i32 %1, ptr %5, align 4
  store ptr %2, ptr %6, align 8
  call void @llvm.lifetime.start.p0(i64 1, ptr %7) #17
  store i8 1, ptr %7, align 1
  %10 = load i32, ptr %5, align 4
  switch i32 %10, label %38 [
    i32 5, label %11
    i32 3, label %11
    i32 1, label %11
    i32 4, label %17
    i32 2, label %17
    i32 0, label %17
    i32 6, label %23
    i32 7, label %30
    i32 8, label %37
  ]

11:                                               ; preds = %3, %3, %3
  %12 = load ptr, ptr %4, align 8
  %13 = load ptr, ptr %12, align 8
  %14 = load ptr, ptr %4, align 8
  %15 = call noundef i32 @_ZN6Assimp9strtoul10EPKcPS1_(ptr noundef %13, ptr noundef %14)
  %16 = load ptr, ptr %6, align 8
  store i32 %15, ptr %16, align 8
  br label %39

17:                                               ; preds = %3, %3, %3
  %18 = load ptr, ptr %4, align 8
  %19 = load ptr, ptr %18, align 8
  %20 = load ptr, ptr %4, align 8
  %21 = call noundef i32 @_ZN6Assimp8strtol10EPKcPS1_(ptr noundef %19, ptr noundef %20)
  %22 = load ptr, ptr %6, align 8
  store i32 %21, ptr %22, align 8
  br label %39

23:                                               ; preds = %3
  %24 = load ptr, ptr %4, align 8
  %25 = load ptr, ptr %24, align 8
  %26 = call noundef ptr @_ZN6Assimp17fast_atoreal_moveIf17DeadlyImportErrorEEPKcS3_RT_b(ptr noundef %25, ptr noundef nonnull align 4 dereferenceable(4) %8, i1 noundef zeroext true)
  %27 = load ptr, ptr %4, align 8
  store ptr %26, ptr %27, align 8
  %28 = load float, ptr %8, align 4
  %29 = load ptr, ptr %6, align 8
  store float %28, ptr %29, align 8
  br label %39

30:                                               ; preds = %3
  %31 = load ptr, ptr %4, align 8
  %32 = load ptr, ptr %31, align 8
  %33 = call noundef ptr @_ZN6Assimp17fast_atoreal_moveId17DeadlyImportErrorEEPKcS3_RT_b(ptr noundef %32, ptr noundef nonnull align 8 dereferenceable(8) %9, i1 noundef zeroext true)
  %34 = load ptr, ptr %4, align 8
  store ptr %33, ptr %34, align 8
  %35 = load double, ptr %9, align 8
  %36 = load ptr, ptr %6, align 8
  store double %35, ptr %36, align 8
  br label %39

37:                                               ; preds = %3
  br label %38

38:                                               ; preds = %3, %37
  store i8 0, ptr %7, align 1
  br label %39

39:                                               ; preds = %38, %30, %23, %17, %11
  %40 = load i8, ptr %7, align 1, !range !3, !noundef !4
  %41 = trunc i8 %40 to i1
  call void @llvm.lifetime.end.p0(i64 1, ptr %7) #17
  ret i1 %41
}