; Function Attrs: mustprogress uwtable
define hidden noundef zeroext i1 @_ZN6Assimp3PLY16PropertyInstance10ParseValueERPKcNS0_9EDataTypeEPNS1_10ValueUnionE(ptr noundef nonnull align 8 captures(none) dereferenceable(8) %0, i32 noundef %1, ptr noundef writeonly captures(none) %2) local_unnamed_addr #2 align 2 {
  %4 = alloca ptr, align 8
  %5 = alloca float, align 4
  %6 = alloca double, align 8
  switch i32 %1, label %49 [
    i32 5, label %7
    i32 3, label %7
    i32 1, label %7
    i32 4, label %18
    i32 2, label %18
    i32 0, label %18
    i32 6, label %41
    i32 7, label %45
  ]

7:                                                ; preds = %3, %3, %3
  %8 = load ptr, ptr %0, align 8
  %9 = load i8, ptr %8, align 1
  %10 = add i8 %9, -58
  %or.cond11.i = icmp ult i8 %10, -10
  br i1 %or.cond11.i, label %_ZN6Assimp9strtoul10EPKcPS1_.exit, label %.lr.ph.i

.lr.ph.i:                                         ; preds = %7, %.lr.ph.i
  %11 = phi i8 [ %16, %.lr.ph.i ], [ %9, %7 ]
  %.013.i = phi i32 [ %14, %.lr.ph.i ], [ 0, %7 ]
  %.0812.i = phi ptr [ %15, %.lr.ph.i ], [ %8, %7 ]
  %12 = mul i32 %.013.i, 10
  %narrow.i = add nsw i8 %11, -48
  %13 = zext nneg i8 %narrow.i to i32
  %14 = add i32 %12, %13
  %15 = getelementptr inbounds nuw i8, ptr %.0812.i, i64 1
  %16 = load i8, ptr %15, align 1
  %17 = add i8 %16, -58
  %or.cond.i = icmp ult i8 %17, -10
  br i1 %or.cond.i, label %_ZN6Assimp9strtoul10EPKcPS1_.exit, label %.lr.ph.i, !llvm.loop !9

_ZN6Assimp9strtoul10EPKcPS1_.exit:                ; preds = %.lr.ph.i, %7
  %.08.lcssa.i = phi ptr [ %8, %7 ], [ %15, %.lr.ph.i ]
  %.0.lcssa.i = phi i32 [ 0, %7 ], [ %14, %.lr.ph.i ]
  store ptr %.08.lcssa.i, ptr %0, align 8
  store i32 %.0.lcssa.i, ptr %2, align 8
  br label %49

18:                                               ; preds = %3, %3, %3
  %19 = load ptr, ptr %0, align 8
  call void @llvm.lifetime.start.p0(i64 8, ptr nonnull %4)
  store ptr %19, ptr %4, align 8
  %20 = load i8, ptr %19, align 1
  %21 = icmp eq i8 %20, 45
  switch i8 %20, label %24 [
    i8 45, label %22
    i8 43, label %22
  ]

22:                                               ; preds = %18, %18
  %23 = getelementptr inbounds nuw i8, ptr %19, i64 1
  store ptr %23, ptr %4, align 8
  %.pre.i = load i8, ptr %23, align 1
  br label %24

24:                                               ; preds = %22, %18
  %25 = phi i8 [ %20, %18 ], [ %.pre.i, %22 ]
  %26 = phi ptr [ %19, %18 ], [ %23, %22 ]
  %27 = add i8 %25, -58
  %or.cond11.i.i = icmp ult i8 %27, -10
  br i1 %or.cond11.i.i, label %._crit_edge.i.i, label %.lr.ph.i.i

.lr.ph.i.i:                                       ; preds = %24, %.lr.ph.i.i
  %28 = phi i8 [ %33, %.lr.ph.i.i ], [ %25, %24 ]
  %.013.i.i = phi i32 [ %31, %.lr.ph.i.i ], [ 0, %24 ]
  %.0812.i.i = phi ptr [ %32, %.lr.ph.i.i ], [ %26, %24 ]
  %29 = mul i32 %.013.i.i, 10
  %narrow.i.i = add nsw i8 %28, -48
  %30 = zext nneg i8 %narrow.i.i to i32
  %31 = add i32 %29, %30
  %32 = getelementptr inbounds nuw i8, ptr %.0812.i.i, i64 1
  %33 = load i8, ptr %32, align 1
  %34 = add i8 %33, -58
  %or.cond.i.i = icmp ult i8 %34, -10
  br i1 %or.cond.i.i, label %._crit_edge.i.i, label %.lr.ph.i.i, !llvm.loop !9

._crit_edge.i.i:                                  ; preds = %.lr.ph.i.i, %24
  %.08.lcssa.i.i = phi ptr [ %26, %24 ], [ %32, %.lr.ph.i.i ]
  %.0.lcssa.i.i = phi i32 [ 0, %24 ], [ %31, %.lr.ph.i.i ]
  store ptr %.08.lcssa.i.i, ptr %0, align 8
  br i1 %21, label %35, label %_ZN6Assimp8strtol10EPKcPS1_.exit

35:                                               ; preds = %._crit_edge.i.i
  %36 = add i32 %.0.lcssa.i.i, 2147483647
  %or.cond.i13 = icmp ult i32 %36, -2
  br i1 %or.cond.i13, label %37, label %39

37:                                               ; preds = %35
  %38 = sub nsw i32 0, %.0.lcssa.i.i
  br label %_ZN6Assimp8strtol10EPKcPS1_.exit

39:                                               ; preds = %35
  %40 = tail call noundef ptr @_ZN6Assimp13DefaultLogger3getEv()
  call void @_ZN6Assimp6Logger4warnIJRA24_KcRPS2_RA47_S2_EEEvDpOT_(ptr noundef nonnull align 8 dereferenceable(12) %40, ptr noundef nonnull align 1 dereferenceable(24) @.str.88, ptr noundef nonnull align 8 dereferenceable(8) %4, ptr noundef nonnull align 1 dereferenceable(47) @.str.89)
  br label %_ZN6Assimp8strtol10EPKcPS1_.exit

_ZN6Assimp8strtol10EPKcPS1_.exit:                 ; preds = %._crit_edge.i.i, %37, %39
  %.0.i = phi i32 [ %38, %37 ], [ %.0.lcssa.i.i, %39 ], [ %.0.lcssa.i.i, %._crit_edge.i.i ]
  call void @llvm.lifetime.end.p0(i64 8, ptr nonnull %4)
  store i32 %.0.i, ptr %2, align 8
  br label %49

41:                                               ; preds = %3
  %42 = load ptr, ptr %0, align 8
  %43 = call noundef ptr @_ZN6Assimp17fast_atoreal_moveIf17DeadlyImportErrorEEPKcS3_RT_b(ptr noundef %42, ptr noundef nonnull align 4 dereferenceable(4) %5, i1 noundef zeroext true)
  store ptr %43, ptr %0, align 8
  %44 = load float, ptr %5, align 4
  store float %44, ptr %2, align 8
  br label %49

45:                                               ; preds = %3
  %46 = load ptr, ptr %0, align 8
  %47 = call noundef ptr @_ZN6Assimp17fast_atoreal_moveId17DeadlyImportErrorEEPKcS3_RT_b(ptr noundef %46, ptr noundef nonnull align 8 dereferenceable(8) %6, i1 noundef zeroext true)
  store ptr %47, ptr %0, align 8
  %48 = load double, ptr %6, align 8
  store double %48, ptr %2, align 8
  br label %49

49:                                               ; preds = %3, %45, %41, %_ZN6Assimp8strtol10EPKcPS1_.exit, %_ZN6Assimp9strtoul10EPKcPS1_.exit
  %.0 = phi i1 [ true, %45 ], [ true, %41 ], [ true, %_ZN6Assimp8strtol10EPKcPS1_.exit ], [ true, %_ZN6Assimp9strtoul10EPKcPS1_.exit ], [ false, %3 ]
  ret i1 %.0
}